; Function Attrs: nounwind uwtable
define dso_local void @Curl_bufq_free(ptr noundef captures(none) %0) local_unnamed_addr #2 {
  %2 = load ptr, ptr %0, align 8
  %.not5.i = icmp eq ptr %2, null
  br i1 %.not5.i, label %chunk_list_free.exit, label %.lr.ph.i

.lr.ph.i:                                         ; preds = %1, %.lr.ph.i
  %3 = phi ptr [ %6, %.lr.ph.i ], [ %2, %1 ]
  %4 = load ptr, ptr %3, align 8
  store ptr %4, ptr %0, align 8
  %5 = load ptr, ptr @Curl_cfree, align 8
  tail call void %5(ptr noundef nonnull %3) #11
  %6 = load ptr, ptr %0, align 8
  %.not.i = icmp eq ptr %6, null
  br i1 %.not.i, label %chunk_list_free.exit, label %.lr.ph.i, !llvm.loop !5

chunk_list_free.exit:                             ; preds = %.lr.ph.i, %1
  %7 = getelementptr inbounds nuw i8, ptr %0, i64 16
  %8 = load ptr, ptr %7, align 8
  %.not5.i4 = icmp eq ptr %8, null
  br i1 %.not5.i4, label %chunk_list_free.exit7, label %.lr.ph.i5

.lr.ph.i5:                                        ; preds = %chunk_list_free.exit, %.lr.ph.i5
  %9 = phi ptr [ %12, %.lr.ph.i5 ], [ %8, %chunk_list_free.exit ]
  %10 = load ptr, ptr %9, align 8
  store ptr %10, ptr %7, align 8
  %11 = load ptr, ptr @Curl_cfree, align 8
  tail call void %11(ptr noundef nonnull %9) #11
  %12 = load ptr, ptr %7, align 8
  %.not.i6 = icmp eq ptr %12, null
  br i1 %.not.i6, label %chunk_list_free.exit7, label %.lr.ph.i5, !llvm.loop !5

chunk_list_free.exit7:                            ; preds = %.lr.ph.i5, %chunk_list_free.exit
  %13 = getelementptr inbounds nuw i8, ptr %0, i64 8
  store ptr null, ptr %13, align 8
  %14 = getelementptr inbounds nuw i8, ptr %0, i64 32
  store i64 0, ptr %14, align 8
  ret void
}